target datalayout = "e-m:e-p270:32:32-p271:32:32-p272:64:64-i64:64-i128:128-f80:128-n8:16:32:64-S128"
target triple = "x86_64-pc-linux-gnu"

%struct.Variable = type { i32, double, double, double, ptr, i8, %"class.std::vector", %"class.std::vector" }
%"class.std::vector" = type { %"struct.std::_Vector_base" }
%"struct.std::_Vector_base" = type { %"struct.std::_Vector_base<Constraint *, std::allocator<Constraint *>>::_Vector_impl" }
%"struct.std::_Vector_base<Constraint *, std::allocator<Constraint *>>::_Vector_impl" = type { %"struct.std::_Vector_base<Constraint *, std::allocator<Constraint *>>::_Vector_impl_data" }
%"struct.std::_Vector_base<Constraint *, std::allocator<Constraint *>>::_Vector_impl_data" = type { ptr, ptr, ptr }
%class.Block = type { %"class.std::vector.0", double, double, double, i8, i64, %"class.std::vector", %"class.std::vector" }
%"class.std::vector.0" = type { %"struct.std::_Vector_base.1" }
%"struct.std::_Vector_base.1" = type { %"struct.std::_Vector_base<Variable *, std::allocator<Variable *>>::_Vector_impl" }
%"struct.std::_Vector_base<Variable *, std::allocator<Variable *>>::_Vector_impl" = type { %"struct.std::_Vector_base<Variable *, std::allocator<Variable *>>::_Vector_impl_data" }
%"struct.std::_Vector_base<Variable *, std::allocator<Variable *>>::_Vector_impl_data" = type { ptr, ptr, ptr }
%"class.__gnu_cxx::__normal_iterator.5" = type { ptr }
%struct.Constraint = type <{ ptr, ptr, double, double, i64, i8, i8, [6 x i8] }>
%"class.__gnu_cxx::__normal_iterator.7" = type { ptr }

; Function Attrs: mustprogress nounwind uwtable
define linkonce_odr void @_ZN9__gnu_cxx17__normal_iteratorIPP10ConstraintSt6vectorIS2_SaIS2_EEEC2ERKS3_(ptr noundef nonnull align 8 dereferenceable(8) %0, ptr noundef nonnull align 8 dereferenceable(8) %1) unnamed_addr #6 comdat align 2 {
  %3 = alloca ptr, align 8
  %4 = alloca ptr, align 8
  store ptr %0, ptr %3, align 8, !tbaa !60
  store ptr %1, ptr %4, align 8, !tbaa !120
  %5 = load ptr, ptr %3, align 8
  %6 = getelementptr inbounds nuw %"class.__gnu_cxx::__normal_iterator.5", ptr %5, i32 0, i32 0
  %7 = load ptr, ptr %4, align 8, !tbaa !120
  %8 = load ptr, ptr %7, align 8, !tbaa !62
  store ptr %8, ptr %6, align 8, !tbaa !63
  ret void
}

; Function Attrs: mustprogress nounwind uwtable
define linkonce_odr noundef nonnull align 8 dereferenceable(8) ptr @_ZNK9__gnu_cxx17__normal_iteratorIPP10ConstraintSt6vectorIS2_SaIS2_EEEdeEv(ptr noundef nonnull align 8 dereferenceable(8) %0) #6 comdat align 2 {
  %2 = alloca ptr, align 8
  store ptr %0, ptr %2, align 8, !tbaa !60
  %3 = load ptr, ptr %2, align 8
  %4 = getelementptr inbounds nuw %"class.__gnu_cxx::__normal_iterator.5", ptr %3, i32 0, i32 0
  %5 = load ptr, ptr %4, align 8, !tbaa !63
  ret ptr %5
}

; Function Attrs: mustprogress nounwind uwtable
define linkonce_odr ptr @_ZNSt6vectorIP10ConstraintSaIS1_EE5beginEv(ptr noundef nonnull align 8 dereferenceable(24) %0) #6 comdat align 2 {
  %2 = alloca %"class.__gnu_cxx::__normal_iterator.5", align 8
  %3 = alloca ptr, align 8
  store ptr %0, ptr %3, align 8, !tbaa !40
  %4 = load ptr, ptr %3, align 8
  %5 = getelementptr inbounds nuw %"struct.std::_Vector_base", ptr %4, i32 0, i32 0
  %6 = getelementptr inbounds nuw %"struct.std::_Vector_base<Constraint *, std::allocator<Constraint *>>::_Vector_impl_data", ptr %5, i32 0, i32 0
  call void @_ZN9__gnu_cxx17__normal_iteratorIPP10ConstraintSt6vectorIS2_SaIS2_EEEC2ERKS3_(ptr noundef nonnull align 8 dereferenceable(8) %2, ptr noundef nonnull align 8 dereferenceable(8) %6) #3
  %7 = getelementptr inbounds nuw %"class.__gnu_cxx::__normal_iterator.5", ptr %2, i32 0, i32 0
  %8 = load ptr, ptr %7, align 8
  ret ptr %8
}

; Function Attrs: mustprogress nounwind uwtable
define linkonce_odr noundef nonnull align 8 dereferenceable(8) ptr @_ZNK9__gnu_cxx17__normal_iteratorIPKP10ConstraintSt6vectorIS2_SaIS2_EEE4baseEv(ptr noundef nonnull align 8 dereferenceable(8) %0) #6 comdat align 2 {
  %2 = alloca ptr, align 8
  store ptr %0, ptr %2, align 8, !tbaa !128
  %3 = load ptr, ptr %2, align 8
  %4 = getelementptr inbounds nuw %"class.__gnu_cxx::__normal_iterator.7", ptr %3, i32 0, i32 0
  ret ptr %4
}

; Function Attrs: mustprogress nounwind uwtable
define linkonce_odr void @_ZN9__gnu_cxx17__normal_iteratorIPKP10ConstraintSt6vectorIS2_SaIS2_EEEC2ERKS4_(ptr noundef nonnull align 8 dereferenceable(8) %0, ptr noundef nonnull align 8 dereferenceable(8) %1) unnamed_addr #6 comdat align 2 {
  %3 = alloca ptr, align 8
  %4 = alloca ptr, align 8
  store ptr %0, ptr %3, align 8, !tbaa !128
  store ptr %1, ptr %4, align 8, !tbaa !120
  %5 = load ptr, ptr %3, align 8
  %6 = getelementptr inbounds nuw %"class.__gnu_cxx::__normal_iterator.7", ptr %5, i32 0, i32 0
  %7 = load ptr, ptr %4, align 8, !tbaa !120
  %8 = load ptr, ptr %7, align 8, !tbaa !62
  store ptr %8, ptr %6, align 8, !tbaa !130
  ret void
}

; Function Attrs: mustprogress nounwind uwtable
define linkonce_odr noundef nonnull align 8 dereferenceable(8) ptr @_ZNSt6vectorIP10ConstraintSaIS1_EE5frontEv(ptr noundef nonnull align 8 dereferenceable(24) %0) #6 comdat align 2 {
  %2 = alloca ptr, align 8
  %3 = alloca %"class.__gnu_cxx::__normal_iterator.5", align 8
  store ptr %0, ptr %2, align 8, !tbaa !40
  %4 = load ptr, ptr %2, align 8
  call void @llvm.lifetime.start.p0(i64 8, ptr %3) #3
  %5 = call ptr @_ZNSt6vectorIP10ConstraintSaIS1_EE5beginEv(ptr noundef nonnull align 8 dereferenceable(24) %4) #3
  %6 = getelementptr inbounds nuw %"class.__gnu_cxx::__normal_iterator.5", ptr %3, i32 0, i32 0
  store ptr %5, ptr %6, align 8
  %7 = call noundef nonnull align 8 dereferenceable(8) ptr @_ZNK9__gnu_cxx17__normal_iteratorIPP10ConstraintSt6vectorIS2_SaIS2_EEEdeEv(ptr noundef nonnull align 8 dereferenceable(8) %3) #3
  call void @llvm.lifetime.end.p0(i64 8, ptr %3) #3
  ret ptr %7
}

; Function Attrs: inlinehint mustprogress nounwind uwtable
define linkonce_odr noundef zeroext i1 @_ZN9__gnu_cxxeqIPKP10ConstraintSt6vectorIS2_SaIS2_EEEEbRKNS_17__normal_iteratorIT_T0_EESD_(ptr noundef nonnull align 8 dereferenceable(8) %0, ptr noundef nonnull align 8 dereferenceable(8) %1) #8 comdat {
  %3 = alloca ptr, align 8
  %4 = alloca ptr, align 8
  store ptr %0, ptr %3, align 8, !tbaa !128
  store ptr %1, ptr %4, align 8, !tbaa !128
  %5 = load ptr, ptr %3, align 8, !tbaa !128
  %6 = call noundef nonnull align 8 dereferenceable(8) ptr @_ZNK9__gnu_cxx17__normal_iteratorIPKP10ConstraintSt6vectorIS2_SaIS2_EEE4baseEv(ptr noundef nonnull align 8 dereferenceable(8) %5) #3
  %7 = load ptr, ptr %6, align 8, !tbaa !62
  %8 = load ptr, ptr %4, align 8, !tbaa !128
  %9 = call noundef nonnull align 8 dereferenceable(8) ptr @_ZNK9__gnu_cxx17__normal_iteratorIPKP10ConstraintSt6vectorIS2_SaIS2_EEE4baseEv(ptr noundef nonnull align 8 dereferenceable(8) %8) #3
  %10 = load ptr, ptr %9, align 8, !tbaa !62
  %11 = icmp eq ptr %7, %10
  ret i1 %11
}

; Function Attrs: mustprogress nounwind uwtable
define linkonce_odr ptr @_ZNKSt6vectorIP10ConstraintSaIS1_EE3endEv(ptr noundef nonnull align 8 dereferenceable(24) %0) #6 comdat align 2 {
  %2 = alloca %"class.__gnu_cxx::__normal_iterator.7", align 8
  %3 = alloca ptr, align 8
  store ptr %0, ptr %3, align 8, !tbaa !40
  %4 = load ptr, ptr %3, align 8
  %5 = getelementptr inbounds nuw %"struct.std::_Vector_base", ptr %4, i32 0, i32 0
  %6 = getelementptr inbounds nuw %"struct.std::_Vector_base<Constraint *, std::allocator<Constraint *>>::_Vector_impl_data", ptr %5, i32 0, i32 1
  call void @_ZN9__gnu_cxx17__normal_iteratorIPKP10ConstraintSt6vectorIS2_SaIS2_EEEC2ERKS4_(ptr noundef nonnull align 8 dereferenceable(8) %2, ptr noundef nonnull align 8 dereferenceable(8) %6) #3
  %7 = getelementptr inbounds nuw %"class.__gnu_cxx::__normal_iterator.7", ptr %2, i32 0, i32 0
  %8 = load ptr, ptr %7, align 8
  ret ptr %8
}

; Function Attrs: mustprogress nounwind uwtable
define linkonce_odr ptr @_ZNKSt6vectorIP10ConstraintSaIS1_EE5beginEv(ptr noundef nonnull align 8 dereferenceable(24) %0) #6 comdat align 2 {
  %2 = alloca %"class.__gnu_cxx::__normal_iterator.7", align 8
  %3 = alloca ptr, align 8
  store ptr %0, ptr %3, align 8, !tbaa !40
  %4 = load ptr, ptr %3, align 8
  %5 = getelementptr inbounds nuw %"struct.std::_Vector_base", ptr %4, i32 0, i32 0
  %6 = getelementptr inbounds nuw %"struct.std::_Vector_base<Constraint *, std::allocator<Constraint *>>::_Vector_impl_data", ptr %5, i32 0, i32 0
  call void @_ZN9__gnu_cxx17__normal_iteratorIPKP10ConstraintSt6vectorIS2_SaIS2_EEEC2ERKS4_(ptr noundef nonnull align 8 dereferenceable(8) %2, ptr noundef nonnull align 8 dereferenceable(8) %6) #3
  %7 = getelementptr inbounds nuw %"class.__gnu_cxx::__normal_iterator.7", ptr %2, i32 0, i32 0
  %8 = load ptr, ptr %7, align 8
  ret ptr %8
}

; Function Attrs: mustprogress nounwind uwtable
define internal noundef ptr @_ZL7findMinRSt6vectorIP10ConstraintSaIS1_EE(ptr noundef nonnull align 8 dereferenceable(24) %0) #6 {
  %2 = alloca ptr, align 8
  store ptr %0, ptr %2, align 8, !tbaa !40
  %3 = load ptr, ptr %2, align 8, !tbaa !40
  %4 = call noundef nonnull align 8 dereferenceable(8) ptr @_ZNSt6vectorIP10ConstraintSaIS1_EE5frontEv(ptr noundef nonnull align 8 dereferenceable(24) %3) #3
  %5 = load ptr, ptr %4, align 8, !tbaa !53
  ret ptr %5
}

; Function Attrs: mustprogress nounwind uwtable
define linkonce_odr noundef zeroext i1 @_ZNKSt6vectorIP10ConstraintSaIS1_EE5emptyEv(ptr noundef nonnull align 8 dereferenceable(24) %0) #6 comdat align 2 {
  %2 = alloca ptr, align 8
  %3 = alloca %"class.__gnu_cxx::__normal_iterator.7", align 8
  %4 = alloca %"class.__gnu_cxx::__normal_iterator.7", align 8
  store ptr %0, ptr %2, align 8, !tbaa !40
  %5 = load ptr, ptr %2, align 8
  call void @llvm.lifetime.start.p0(i64 8, ptr %3) #3
  %6 = call ptr @_ZNKSt6vectorIP10ConstraintSaIS1_EE5beginEv(ptr noundef nonnull align 8 dereferenceable(24) %5) #3
  %7 = getelementptr inbounds nuw %"class.__gnu_cxx::__normal_iterator.7", ptr %3, i32 0, i32 0
  store ptr %6, ptr %7, align 8
  call void @llvm.lifetime.start.p0(i64 8, ptr %4) #3
  %8 = call ptr @_ZNKSt6vectorIP10ConstraintSaIS1_EE3endEv(ptr noundef nonnull align 8 dereferenceable(24) %5) #3
  %9 = getelementptr inbounds nuw %"class.__gnu_cxx::__normal_iterator.7", ptr %4, i32 0, i32 0
  store ptr %8, ptr %9, align 8
  %10 = call noundef zeroext i1 @_ZN9__gnu_cxxeqIPKP10ConstraintSt6vectorIS2_SaIS2_EEEEbRKNS_17__normal_iteratorIT_T0_EESD_(ptr noundef nonnull align 8 dereferenceable(8) %3, ptr noundef nonnull align 8 dereferenceable(8) %4) #3
  call void @llvm.lifetime.end.p0(i64 8, ptr %4) #3
  call void @llvm.lifetime.end.p0(i64 8, ptr %3) #3
  ret i1 %10
}

; Function Attrs: mustprogress uwtable
define noundef ptr @_ZN5Block20findMinOutConstraintEv(ptr noundef nonnull align 8 dereferenceable(112) %0) #4 align 2 {
  %2 = alloca ptr, align 8
  %3 = alloca ptr, align 8
  %4 = alloca ptr, align 8
  %5 = alloca i32, align 4
  store ptr %0, ptr %3, align 8, !tbaa !3
  %6 = load ptr, ptr %3, align 8
  %7 = getelementptr inbounds nuw %class.Block, ptr %6, i32 0, i32 7
  %8 = call noundef zeroext i1 @_ZNKSt6vectorIP10ConstraintSaIS1_EE5emptyEv(ptr noundef nonnull align 8 dereferenceable(24) %7) #3
  br i1 %8, label %9, label %10

9:                                                ; preds = %1
  store ptr null, ptr %2, align 8
  br label %36

10:                                               ; preds = %1
  call void @llvm.lifetime.start.p0(i64 8, ptr %4) #3
  %11 = getelementptr inbounds nuw %class.Block, ptr %6, i32 0, i32 7
  %12 = call noundef ptr @_ZL7findMinRSt6vectorIP10ConstraintSaIS1_EE(ptr noundef nonnull align 8 dereferenceable(24) %11)
  store ptr %12, ptr %4, align 8, !tbaa !53
  br label %13

13:                                               ; preds = %30, %10
  %14 = load ptr, ptr %4, align 8, !tbaa !53
  %15 = getelementptr inbounds nuw %struct.Constraint, ptr %14, i32 0, i32 0
  %16 = load ptr, ptr %15, align 8, !tbaa !58
  %17 = getelementptr inbounds nuw %struct.Variable, ptr %16, i32 0, i32 4
  %18 = load ptr, ptr %17, align 8, !tbaa !10
  %19 = load ptr, ptr %4, align 8, !tbaa !53
  %20 = getelementptr inbounds nuw %struct.Constraint, ptr %19, i32 0, i32 1
  %21 = load ptr, ptr %20, align 8, !tbaa !59
  %22 = getelementptr inbounds nuw %struct.Variable, ptr %21, i32 0, i32 4
  %23 = load ptr, ptr %22, align 8, !tbaa !10
  %24 = icmp eq ptr %18, %23
  br i1 %24, label %25, label %33

25:                                               ; preds = %13
  %26 = getelementptr inbounds nuw %class.Block, ptr %6, i32 0, i32 7
  call void @_ZL9deleteMinRSt6vectorIP10ConstraintSaIS1_EE(ptr noundef nonnull align 8 dereferenceable(24) %26)
  %27 = getelementptr inbounds nuw %class.Block, ptr %6, i32 0, i32 7
  %28 = call noundef zeroext i1 @_ZNKSt6vectorIP10ConstraintSaIS1_EE5emptyEv(ptr noundef nonnull align 8 dereferenceable(24) %27) #3
  br i1 %28, label %29, label %30

29:                                               ; preds = %25
  store ptr null, ptr %2, align 8
  store i32 1, ptr %5, align 4
  br label %35

30:                                               ; preds = %25
  %31 = getelementptr inbounds nuw %class.Block, ptr %6, i32 0, i32 7
  %32 = call noundef ptr @_ZL7findMinRSt6vectorIP10ConstraintSaIS1_EE(ptr noundef nonnull align 8 dereferenceable(24) %31)
  store ptr %32, ptr %4, align 8, !tbaa !53
  br label %13, !llvm.loop !70

33:                                               ; preds = %13
  %34 = load ptr, ptr %4, align 8, !tbaa !53
  store ptr %34, ptr %2, align 8
  store i32 1, ptr %5, align 4
  br label %35

35:                                               ; preds = %33, %29
  call void @llvm.lifetime.end.p0(i64 8, ptr %4) #3
  br label %36

36:                                               ; preds = %35, %9
  %37 = load ptr, ptr %2, align 8
  ret ptr %37
}