; Function Attrs: mustprogress nofree norecurse nosync nounwind memory(readwrite, inaccessiblemem: none) uwtable
define noundef ptr @_ZN5Block20findMinOutConstraintEv(ptr noundef nonnull align 8 captures(none) dereferenceable(112) %0) local_unnamed_addr #7 align 2 {
  %2 = getelementptr inbounds nuw i8, ptr %0, i64 88
  %3 = load ptr, ptr %2, align 8, !tbaa !41
  %4 = getelementptr inbounds nuw i8, ptr %0, i64 96
  %5 = load ptr, ptr %4, align 8, !tbaa !41
  %6 = icmp eq ptr %3, %5
  br i1 %6, label %.loopexit, label %.preheader

.preheader:                                       ; preds = %1, %15
  %.0.in = phi ptr [ %16, %15 ], [ %3, %1 ]
  %.0 = load ptr, ptr %.0.in, align 8, !tbaa !43
  %7 = load ptr, ptr %.0, align 8, !tbaa !47
  %8 = getelementptr inbounds nuw i8, ptr %7, i64 32
  %9 = load ptr, ptr %8, align 8, !tbaa !3
  %10 = getelementptr inbounds nuw i8, ptr %.0, i64 8
  %11 = load ptr, ptr %10, align 8, !tbaa !48
  %12 = getelementptr inbounds nuw i8, ptr %11, i64 32
  %13 = load ptr, ptr %12, align 8, !tbaa !3
  %14 = icmp eq ptr %9, %13
  br i1 %14, label %15, label %.loopexit

15:                                               ; preds = %.preheader
  tail call fastcc void @_ZL9deleteMinRSt6vectorIP10ConstraintSaIS1_EE(ptr noundef nonnull align 8 dereferenceable(24) %2)
  %16 = load ptr, ptr %2, align 8, !tbaa !41
  %17 = load ptr, ptr %4, align 8, !tbaa !41
  %18 = icmp eq ptr %16, %17
  br i1 %18, label %.loopexit, label %.preheader, !llvm.loop !56

.loopexit:                                        ; preds = %15, %.preheader, %1
  %.05 = phi ptr [ null, %1 ], [ %.0, %.preheader ], [ null, %15 ]
  ret ptr %.05
}